; Function Attrs: mustprogress nofree norecurse nosync nounwind willreturn memory(argmem: write) uwtable
define hidden void @_ZN2cv15BriskScaleSpaceC2Ei(ptr nocapture noundef nonnull writeonly align 8 dereferenceable(32) %0, i32 noundef %1) unnamed_addr #14 align 2 {
  %3 = getelementptr inbounds i8, ptr %0, i64 8
  tail call void @llvm.memset.p0.i64(ptr noundef nonnull align 8 dereferenceable(24) %3, i8 0, i64 24, i1 false)
  %4 = icmp eq i32 %1, 0
  %5 = shl nsw i32 %1, 1
  %storemerge = select i1 %4, i32 1, i32 %5
  store i32 %storemerge, ptr %0, align 8
  ret void
}